; Function Attrs: mustprogress nounwind uwtable
define hidden i64 @_ZNK8facebook6hermes7tracing14TracingRuntime17getTimeSinceStartEv(ptr nocapture noundef nonnull readonly align 8 dereferenceable(172) %this) local_unnamed_addr #3 align 2 {
entry:
  %call = tail call i64 @_ZNSt6chrono3_V212steady_clock3nowEv() #27
  %startTime_ = getelementptr inbounds i8, ptr %this, i64 160
  %retval.sroa.0.0.copyload.i1.i = load i64, ptr %startTime_, align 8
  %sub.i.i = sub nsw i64 %call, %retval.sroa.0.0.copyload.i1.i
  %div.i.i = sdiv i64 %sub.i.i, 1000000
  ret i64 %div.i.i
}